(iposting
ParsedPostings
p0
(dp1
S'parsedPostings'
p2
(lp3
(iposting
ParsedPosting
p4
(dp5
S'leavingOn'
p6
cdatetime
datetime
p7
(S'\x07\xdc\x0b\x11\x00\x00\x00\x00\x00\x00'
p8
tp9
Rp10
sS'goingTo'
p11
S'tri cities'
p12
sS'leavingFrom'
p13
S'seattle'
p14
sS'driver'
p15
I01
sS'posting'
p16
(iposting
Posting
p17
(dp18
S'permalink'
p19
Vhttp://seattle.craigslist.org/see/rid/3415641625.html
p20
sS'mailToLink'
p21
S'emailnofound'
p22
sS'title'
p23
Vseattle to tri cities (bainbridge island)
p24
sS'postingFrom'
p25
S'seattle'
p26
sS'postingDate'
p27
V2012-11-17T00:15:43-08:00
p28
sS'parsedPostingDate'
p29
g7
(S'\x07\xdc\x0b\x11\x00\x0f+\x00\x00\x00'
p30
tp31
Rp32
sS'shortDescription'
p33
Vdriving from Bainbridge to tri cities wednesday afternoon, taking highway 90. Can stop along the way. need gas money up front. 
p34
sbsba(iposting
ParsedPosting
p35
(dp36
g6
g7
(S'\x07\xdc\x0b\x14\x00\x00\x00\x00\x00\x00'
p37
tp38
Rp39
sg11
S'portland'
p40
sg13
S'seattle'
p41
sg15
I00
sg16
(iposting
Posting
p42
(dp43
g19
Vhttp://seattle.craigslist.org/see/rid/3415592568.html
p44
sg21
g22
sg23
VNeed ride to Portland eve of 11/20 or 11/21
p45
sg25
g26
sg27
V2012-11-16T23:03:21-08:00
p46
sg29
g7
(S'\x07\xdc\x0b\x10\x17\x03\x15\x00\x00\x00'
p47
tp48
Rp49
sg33
VTrying to get to Portland on Tuesday for some thanksgiving fun. I have gas $ and/or grass if you like. Seriously, I'm an awesome rideshare partner. If you don't want to talk I'll sleep.(quietly) If C \u000aconversation is what you seek I can talk interest [...]
p50
sbsba(iposting
ParsedPosting
p51
(dp52
g6
g7
(S'\x07\xdc\x0b\x14\x00\x00\x00\x00\x00\x00'
p53
tp54
Rp55
sg11
S'spokane'
p56
sg13
S'seattle'
p57
sg15
I00
sg16
(iposting
Posting
p58
(dp59
g19
Vhttp://seattle.craigslist.org/see/rid/3415498218.html
p60
sg21
g22
sg23
VRide needed - Seattle to Spokane on Tue 11/20 (Seattle)
p61
sg25
g26
sg27
V2012-11-16T21:19:35-08:00
p62
sg29
g7
(S'\x07\xdc\x0b\x10\x15\x13#\x00\x00\x00'
p63
tp64
Rp65
sg33
VI'm looking for a ride from Seattle to Spokane. \u000aLeaving November 20th returning November 25th. Contact me on Zimride: http://www.zimride.com/ride/share?ride=538634 
p66
sbsba(iposting
ParsedPosting
p67
(dp68
g6
g7
(S'\x07\xdc\x0b\x01\x00\x00\x00\x00\x00\x00'
p69
tp70
Rp71
sg11
S'invalid'
p72
sg13
S'invalid'
p73
sg15
I00
sg16
(iposting
Posting
p74
(dp75
g19
Vhttp://seattle.craigslist.org/see/rid/3415257291.html
p76
sg21
g22
sg23
Vcheap travel to any state in the country
p77
sg25
g26
sg27
V2012-11-16T18:18:08-08:00
p78
sg29
g7
(S'\x07\xdc\x0b\x10\x12\x12\x08\x00\x00\x00'
p79
tp80
Rp81
sg33
VWe are a wholesale travel agency that specializes in providing the best price for travel on Greyhound or amtrak. Since we are an online only travel booker, we are able to further discount travel tickets b/c we have very low operating costs. We specia [...]
p82
sbsba(iposting
ParsedPosting
p83
(dp84
g6
g7
(S'\x07\xdc\x0b\x12\x00\x00\x00\x00\x00\x00'
p85
tp86
Rp87
sg11
S'eugene'
p88
sg13
S'seattle'
p89
sg15
I00
sg16
(iposting
Posting
p90
(dp91
g19
Vhttp://seattle.craigslist.org/see/rid/3415253763.html
p92
sg21
g22
sg23
VNeed ride south to Portland or Eugene Sunday 11/18
p93
sg25
g26
sg27
V2012-11-16T18:15:54-08:00
p94
sg29
g7
(S'\x07\xdc\x0b\x10\x12\x0f6\x00\x00\x00'
p95
tp96
Rp97
sg33
VI need a ride to Eugene this Sunday 11/18. I have money for gas. Getting to Portland would be fine too. I'm a 26 year old male student trying to visit a friend who is expecting a baby in the coming days. Please let me know if you have room for me and [...]
p98
sbsba(iposting
ParsedPosting
p99
(dp100
g6
g7
(S'\x07\xdc\x0b\x10\x00\x00\x00\x00\x00\x00'
p101
tp102
Rp103
sg11
S'bellingham'
p104
sg13
S'seattle'
p105
sg15
I01
sg16
(iposting
Posting
p106
(dp107
g19
Vhttp://seattle.craigslist.org/est/rid/3415109949.html
p108
sg21
g22
sg23
VOffering ride to Bellingham immediately (Newcastle)
p109
sg25
g26
sg27
V2012-11-16T16:53:33-08:00
p110
sg29
g7
(S'\x07\xdc\x0b\x10\x105!\x00\x00\x00'
p111
tp112
Rp113
sg33
VGoing to Bellingham for the weekend. Leaving from Newcastle, WA. Could pick up riders in Bellevue, or anywhere along the route. Round trip optional - coming back down Sunday evening. \u000aLooking for someone to chip in on gas and ride along so that I can [...]
p114
sbsba(iposting
ParsedPosting
p115
(dp116
g6
g7
(S'\x07\xdc\x0b\x01\x00\x00\x00\x00\x00\x00'
p117
tp118
Rp119
sg11
S'invalid'
p120
sg13
S'invalid'
p121
sg15
I00
sg16
(iposting
Posting
p122
(dp123
g19
Vhttp://seattle.craigslist.org/see/rid/3415097592.html
p124
sg21
g22
sg23
Vcheap cheap deals on travel to any state
p125
sg25
g26
sg27
V2012-11-16T16:47:05-08:00
p126
sg29
g7
(S'\x07\xdc\x0b\x10\x10/\x05\x00\x00\x00'
p127
tp128
Rp129
sg33
VWe are a wholesale travel agency that specializes in providing the best price for travel on Greyhound or amtrak. Since we are an online only travel booker, we are able to further discount travel tickets b/c we have very low operating costs. We specia [...]
p130
sbsba(iposting
ParsedPosting
p131
(dp132
g6
g7
(S'\x07\xdc\x0b\x14\x00\x00\x00\x00\x00\x00'
p133
tp134
Rp135
sg11
S'boise'
p136
sg13
S'seattle'
p137
sg15
I00
sg16
(iposting
Posting
p138
(dp139
g19
Vhttp://seattle.craigslist.org/see/rid/3415067472.html
p140
sg21
g22
sg23
VLooking for ride to Boise or Twin Falls
p141
sg25
g26
sg27
V2012-11-16T16:31:07-08:00
p142
sg29
g7
(S'\x07\xdc\x0b\x10\x10\x1f\x07\x00\x00\x00'
p143
tp144
Rp145
sg33
VLooking for a ride to Boise or Twin Falls on Tuesday or Wednesday. Happy to help with gas
p146
sbsba(iposting
ParsedPosting
p147
(dp148
g6
g7
(S'\x07\xdc\x0b\x11\x00\x00\x00\x00\x00\x00'
p149
tp150
Rp151
sg11
S'portland'
p152
sg13
S'seattle'
p153
sg15
I00
sg16
(iposting
Posting
p154
(dp155
g19
Vhttp://seattle.craigslist.org/see/rid/3415040579.html
p156
sg21
g22
sg23
VLooking to go to Portland 11/17 evening (Seattle or north end)
p157
sg25
g26
sg27
V2012-11-16T16:17:16-08:00
p158
sg29
g7
(S'\x07\xdc\x0b\x10\x10\x11\x10\x00\x00\x00'
p159
tp160
Rp161
sg33
VHi there, \u000aI'm looking to get to Portland tomorrow evening. Can leave 6 pm or later. \u000aI don't have much money for gas, I'm wondering if you will accept canned tomatoes and black beans, and couple bulbs of organic local garlic. Can also offer up a gro [...]
p162
sbsba(iposting
ParsedPosting
p163
(dp164
g6
g7
(S'\x07\xdc\x0b\x11\x00\x00\x00\x00\x00\x00'
p165
tp166
Rp167
sg11
S'portland'
p168
sg13
S'seattle'
p169
sg15
I01
sg16
(iposting
Posting
p170
(dp171
g19
Vhttp://seattle.craigslist.org/see/rid/3415036628.html
p172
sg21
g22
sg23
VSeattle to Portland leaving Sat. afternoon 11/17 (downtown)
p173
sg25
g26
sg27
V2012-11-16T16:15:18-08:00
p174
sg29
g7
(S'\x07\xdc\x0b\x10\x10\x0f\x12\x00\x00\x00'
p175
tp176
Rp177
sg33
Vim going to be leaving to portland in the afternoon... i have 3 seats available, but that includes storage too.. trunk is full. call or txt 559-974-0881 \u000adon't bother emailing because i won't be checking, thanks.... 
p178
sbsba(iposting
ParsedPosting
p179
(dp180
g6
g7
(S'\x07\xdc\x0b\x11\x00\x00\x00\x00\x00\x00'
p181
tp182
Rp183
sg11
S'vancouver'
p184
sg13
S'seattle'
p185
sg15
I01
sg16
(iposting
Posting
p186
(dp187
g19
Vhttp://seattle.craigslist.org/see/rid/3415006292.html
p188
sg21
g22
sg23
VRide Offered: Seattle to Vancouver, BC on Saturday (Issaquah, Seattle - Vancouver)
p189
sg25
g26
sg27
V2012-11-16T16:00:13-08:00
p190
sg29
g7
(S'\x07\xdc\x0b\x10\x10\x00\r\x00\x00\x00'
p191
tp192
Rp193
sg33
VI'm heading up to Vancouver (or Squamish more specifically) tomorrow morning (some time around noon more like) I have room in my car for a couple people. \u000aLet me know if you need a ride. \u000aCheers, 
p194
sbsba(iposting
ParsedPosting
p195
(dp196
g6
g7
(S'\x07\xdc\x0b\x10\x00\x00\x00\x00\x00\x00'
p197
tp198
Rp199
sg11
S'montana'
p200
sg13
S'seattle'
p201
sg15
I01
sg16
(iposting
Posting
p202
(dp203
g19
Vhttp://seattle.craigslist.org/sno/rid/3414837860.html
p204
sg21
g22
sg23
VChill RV Roadtrip  (2 Montana Hot Springs)
p205
sg25
g26
sg27
V2012-11-16T14:40:43-08:00
p206
sg29
g7
(S'\x07\xdc\x0b\x10\x0e(+\x00\x00\x00'
p207
tp208
Rp209
sg33
VMy RV You Drive Licensed driver of course. Even if your not a driver room for other enlightened passengers. Modern day hippy just living in the now going where the road takes me. Knowledge of sustainable energy. Let me know if interested in sharing t [...]
p210
sbsba(iposting
ParsedPosting
p211
(dp212
g6
g7
(S'\x07\xdc\x0b\x15\x00\x00\x00\x00\x00\x00'
p213
tp214
Rp215
sg11
S'eugene'
p216
sg13
S'seattle'
p217
sg15
I01
sg16
(iposting
Posting
p218
(dp219
g19
Vhttp://seattle.craigslist.org/tac/rid/3414707759.html
p220
sg21
g22
sg23
VHeaded to Eugene 11/21 Evening (Tacoma / Fife)
p221
sg25
g26
sg27
V2012-11-16T13:45:21-08:00
p222
sg29
g7
(S'\x07\xdc\x0b\x10\r-\x15\x00\x00\x00'
p223
tp224
Rp225
sg33
VShort notice \u000aHeaded down to Eugene day before Thanksgiving. \u000aComing back late afternoon Sunday 11/25 \u000aTom 253 509-2298 
p226
sbsba(iposting
ParsedPosting
p227
(dp228
g6
g7
(S'\x07\xdc\x0b\x10\x00\x00\x00\x00\x00\x00'
p229
tp230
Rp231
sg11
S'seattle'
p232
sg13
S'olympia'
p233
sg15
I00
sg16
(iposting
Posting
p234
(dp235
g19
Vhttp://seattle.craigslist.org/oly/rid/3414542773.html
p236
sg21
g22
sg23
VRide Needed: Olympia to Seattle (Today 11/16) (West olympia)
p237
sg25
g26
sg27
V2012-11-16T12:39:07-08:00
p238
sg29
g7
(S"\x07\xdc\x0b\x10\x0c'\x07\x00\x00\x00"
p239
tp240
Rp241
sg33
VHi! I am in need of a ride to Seattle today!! If you are driving up and you need some extra bucks on gas, I am willing to help! I can go in for half of the gas to Seattle. If you are planning to go today Please shoot me a text/call. My number is two- [...]
p242
sbsba(iposting
ParsedPosting
p243
(dp244
g6
g7
(S'\x07\xdc\x0b\x10\x00\x00\x00\x00\x00\x00'
p245
tp246
Rp247
sg11
S'california'
p248
sg13
S'seattle'
p249
sg15
I00
sg16
(iposting
Posting
p250
(dp251
g19
Vhttp://seattle.craigslist.org/see/rid/3414518664.html
p252
sg21
g22
sg23
VNORTHERN CALIFORNIA ASAP (seattle-tacoma)
p253
sg25
g26
sg27
V2012-11-16T12:29:44-08:00
p254
sg29
g7
(S'\x07\xdc\x0b\x10\x0c\x1d,\x00\x00\x00'
p255
tp256
Rp257
sg33
Vlooking to leave sun at the soonest. \u000ai have money for gas and excellent jokes. \u000agive me a text 5306043749 \u000aflights are so expensive last min,amtrak is sold out. 
p258
sbsba(iposting
ParsedPosting
p259
(dp260
g6
g7
(S'\x07\xdc\x0b\x13\x00\x00\x00\x00\x00\x00'
p261
tp262
Rp263
sg11
S'san diego'
p264
sg13
S'seattle'
p265
sg15
I01
sg16
(iposting
Posting
p266
(dp267
g19
Vhttp://seattle.craigslist.org/kit/rid/3414499182.html
p268
sg21
g22
sg23
VHeading to san diego on 11/19 (bremerton)
p269
sg25
g26
sg27
V2012-11-16T12:22:13-08:00
p270
sg29
g7
(S'\x07\xdc\x0b\x10\x0c\x16\r\x00\x00\x00'
p271
tp272
Rp273
sg33
VIm heading to San Diego on the 19th of November for work, I have a ext. cab truck and can haul stuff down there or ride share, im plan on driving the whole way, and can drop u anywhere within reasonable distance of 1-5 for gas money.... any questions [...]
p274
sbsba(iposting
ParsedPosting
p275
(dp276
g6
g7
(S'\x07\xdc\x0b\x10\x00\x00\x00\x00\x00\x00'
p277
tp278
Rp279
sg11
S'bellingham'
p280
sg13
S'redmond'
p281
sg15
I01
sg16
(iposting
Posting
p282
(dp283
g19
Vhttp://seattle.craigslist.org/see/rid/3414320526.html
p284
sg21
g22
sg23
VRide offered - Redmond to Bellingham on Fri 11/16 (Seattle, Redmond, BHM)
p285
sg25
g26
sg27
V2012-11-16T11:14:34-08:00
p286
sg29
g7
(S'\x07\xdc\x0b\x10\x0b\x0e"\x00\x00\x00'
p287
tp288
Rp289
sg33
VI'm offering a ride from Redmond to Bellingham. \u000aLeaving late night November 16th returning afternoon November 17th. No smoking no pets no drinking\u000atxt me 224 616 ABID or respond to addThanks Contact me on Zimride: http://www.zimride.com/ride/share?r [...]
p290
sbsba(iposting
ParsedPosting
p291
(dp292
g6
g7
(S'\x07\xdc\x0b\x10\x00\x00\x00\x00\x00\x00'
p293
tp294
Rp295
sg11
S'spokane'
p296
sg13
S'seattle'
p297
sg15
I00
sg16
(iposting
Posting
p298
(dp299
g19
Vhttp://seattle.craigslist.org/est/rid/3414299268.html
p300
sg21
g22
sg23
Vneed ride to spokane $20 in gas (redmond to spokane)
p301
sg25
g26
sg27
V2012-11-16T11:06:40-08:00
p302
sg29
g7
(S'\x07\xdc\x0b\x10\x0b\x06(\x00\x00\x00'
p303
tp304
Rp305
sg33
VI've got $20 for a ride to Spokane today, preferably by 5 ish... Call or text thanks \u000aDavid, \u000a2082155851
p306
sbsba(iposting
ParsedPosting
p307
(dp308
g6
g7
(S'\x07\xdc\x0b\x10\x00\x00\x00\x00\x00\x00'
p309
tp310
Rp311
sg11
S'portland'
p312
sg13
S'seattle'
p313
sg15
I01
sg16
(iposting
Posting
p314
(dp315
g19
Vhttp://seattle.craigslist.org/see/rid/3414276415.html
p316
sg21
g22
sg23
VRide offered to Portland tonight  (Seattle area)
p317
sg25
g26
sg27
V2012-11-16T10:58:07-08:00
p318
sg29
g7
(S'\x07\xdc\x0b\x10\n:\x07\x00\x00\x00'
p319
tp320
Rp321
sg33
VI will be leaving for Portland sometime this evening and offering a ride. I'm a 30yr old male construction worker. Comfortable SUV. $25 gets you there. Please have good hygiene and no pets please. \u000aCall/text 425.614.9808 \u000aCharles 
p322
sbsba(iposting
ParsedPosting
p323
(dp324
g6
g7
(S'\x07\xdc\x0b\x15\x00\x00\x00\x00\x00\x00'
p325
tp326
Rp327
sg11
S'california'
p328
sg13
S'seattle'
p329
sg15
I01
sg16
(iposting
Posting
p330
(dp331
g19
Vhttp://seattle.craigslist.org/see/rid/3414236560.html
p332
sg21
g22
sg23
VSeattle to California 11/21 (Downtown)
p333
sg25
g26
sg27
V2012-11-16T10:43:38-08:00
p334
sg29
g7
(S'\x07\xdc\x0b\x10\n+&\x00\x00\x00'
p335
tp336
Rp337
sg33
VNeed a ride South? I'm planning on driving down to central California on the evening of 11/21 (probably around 5:00) and leaving from downtown. I'll be driving along the I-5, so I can drop you off somewhere along the way as long as it isn't too much  [...]
p338
sbsba(iposting
ParsedPosting
p339
(dp340
g6
g7
(S'\x07\xdc\x0b\x14\x00\x00\x00\x00\x00\x00'
p341
tp342
Rp343
sg11
S'santa cruz'
p344
sg13
S'seattle'
p345
sg15
I01
sg16
(iposting
Posting
p346
(dp347
g19
Vhttp://seattle.craigslist.org/see/rid/3414223177.html
p348
sg21
g22
sg23
VRide offered - Seattle to Santa Cruz on Tue 11/20 (Seattle)
p349
sg25
g26
sg27
V2012-11-16T10:38:36-08:00
p350
sg29
g7
(S'\x07\xdc\x0b\x10\n&$\x00\x00\x00'
p351
tp352
Rp353
sg33
VI'm offering a ride from Seattle to Santa Cruz. \u000aLeaving November 20th returning November 26th. I want to drive straight through without any overnight stops. I am a safe driver and I'm looking for people to help drive. I need passengers that are also [...]
p354
sbsba(iposting
ParsedPosting
p355
(dp356
g6
g7
(S'\x07\xdc\x0b\x10\x00\x00\x00\x00\x00\x00'
p357
tp358
Rp359
sg11
S'minneapolis'
p360
sg13
S'seattle'
p361
sg15
I01
sg16
(iposting
Posting
p362
(dp363
g19
Vhttp://seattle.craigslist.org/oly/rid/3414173785.html
p364
sg21
g22
sg23
VHeaded east Seattle to Minneapolis
p365
sg25
g26
sg27
V2012-11-16T10:20:53-08:00
p366
sg29
g7
(S'\x07\xdc\x0b\x10\n\x145\x00\x00\x00'
p367
tp368
Rp369
sg33
VI have a 1-ton dually headed east to Minneapolis I have a topper on the 8 foot bed can move something for you if you need it moved that direction. I also have a bumper pull hitch if you need a trailer, camper, boat, or anything else with a hitch move [...]
p370
sbsba(iposting
ParsedPosting
p371
(dp372
g6
g7
(S'\x07\xdc\x0b\x10\x00\x00\x00\x00\x00\x00'
p373
tp374
Rp375
sg11
S'wenatchee'
p376
sg13
S'seattle'
p377
sg15
I01
sg16
(iposting
Posting
p378
(dp379
g19
Vhttp://seattle.craigslist.org/sno/rid/3413999665.html
p380
sg21
g22
sg23
VGoing East  ( Wenatchee)
p381
sg25
g26
sg27
V2012-11-16T09:18:16-08:00
p382
sg29
g7
(S'\x07\xdc\x0b\x10\t\x12\x10\x00\x00\x00'
p383
tp384
Rp385
sg33
VLeaving today in a couple of hours, traveling to Wenatchee, looking to share the ride
p386
sbsba(iposting
ParsedPosting
p387
(dp388
g6
g7
(S'\x07\xdc\x0b\x17\x00\x00\x00\x00\x00\x00'
p389
tp390
Rp391
sg11
S'boise'
p392
sg13
S'seattle'
p393
sg15
I01
sg16
(iposting
Posting
p394
(dp395
g19
Vhttp://seattle.craigslist.org/tac/rid/3413963945.html
p396
sg21
g22
sg23
VRide to Boise 11/23 (Puyallup)
p397
sg25
g26
sg27
V2012-11-16T09:05:00-08:00
p398
sg29
g7
(S'\x07\xdc\x0b\x10\t\x05\x00\x00\x00\x00'
p399
tp400
Rp401
sg33
VHeading home to Ontario, Oregon via Ellensburg, Yakima, Pendleton, La Grande, and Baker City Oregon. Leaving Friday morning 11/23. Will split gas ($50 each) - can take you on to Boise for an additional $10. Have large van, plenty of space. No drugs,  [...]
p402
sbsba(iposting
ParsedPosting
p403
(dp404
g6
g7
(S'\x07\xdc\x0b\x01\x00\x00\x00\x00\x00\x00'
p405
tp406
Rp407
sg11
S'invalid'
p408
sg13
S'invalid'
p409
sg15
I00
sg16
(iposting
Posting
p410
(dp411
g19
Vhttp://seattle.craigslist.org/skc/rid/3374683528.html
p412
sg21
g22
sg23
VHave a Van/Jazzy Select Wheelchair/Ramp (Renton)
p413
sg25
g26
sg27
V2012-11-16T08:58:51-08:00
p414
sg29
g7
(S'\x07\xdc\x0b\x10\x08:3\x00\x00\x00'
p415
tp416
Rp417
sg33
VWill pick you up, take you to your appt or errands, wait and drive you home....prices vary depending on mileage and time... 
p418
sbsba(iposting
ParsedPosting
p419
(dp420
g6
g7
(S'\x07\xdc\x0b\x10\x00\x00\x00\x00\x00\x00'
p421
tp422
Rp423
sg11
S'bellingham'
p424
sg13
S'olympia'
p425
sg15
I00
sg16
(iposting
Posting
p426
(dp427
g19
Vhttp://seattle.craigslist.org/oly/rid/3413874355.html
p428
sg21
g22
sg23
VRide Need Today: Olympia to Bellingham (Oly-Bham)
p429
sg25
g26
sg27
V2012-11-16T08:31:56-08:00
p430
sg29
g7
(S'\x07\xdc\x0b\x10\x08\x1f8\x00\x00\x00'
p431
tp432
Rp433
sg33
VI'm looking for a ride to Bellingham today. I am willing to pitch in for gas. I'm a chill guy headed to Canada in the next few days. Call/text me at 603-6eight9-6876
p434
sbsba(iposting
ParsedPosting
p435
(dp436
g6
g7
(S'\x07\xdc\x0b\x14\x00\x00\x00\x00\x00\x00'
p437
tp438
Rp439
sg11
S'seatac'
p440
sg13
S'olympia'
p441
sg15
I00
sg16
(iposting
Posting
p442
(dp443
g19
Vhttp://seattle.craigslist.org/oly/rid/3413851896.html
p444
sg21
g22
sg23
VNeed ride from Olympia to SEATAC on nov 20 (olympia wa)
p445
sg25
g26
sg27
V2012-11-16T08:23:22-08:00
p446
sg29
g7
(S'\x07\xdc\x0b\x10\x08\x17\x16\x00\x00\x00'
p447
tp448
Rp449
sg33
VHello, \u000aMy name is Carly. I am looking for a ride on november 20 in the morning to the airport from Olympia. My flight leaves around 11:30 but I am okay with arriving early. \u000aI can offer gas/generosity $, homemade raw chocolate, and company :) \u000aMy nu [...]
p450
sbsba(iposting
ParsedPosting
p451
(dp452
g6
g7
(S'\x07\xdc\x0b\x12\x00\x00\x00\x00\x00\x00'
p453
tp454
Rp455
sg11
S'tri cities'
p456
sg13
S'seattle'
p457
sg15
I00
sg16
(iposting
Posting
p458
(dp459
g19
Vhttp://seattle.craigslist.org/see/rid/3413775464.html
p460
sg21
g22
sg23
VNeed ride sunday or saturday to tri cities (Seattle)
p461
sg25
g26
sg27
V2012-11-16T07:53:18-08:00
p462
sg29
g7
(S'\x07\xdc\x0b\x10\x075\x12\x00\x00\x00'
p463
tp464
Rp465
sg33
VI am looking for a ride from seattle to tro cities on sunday or anytime around then saturday would even work for me pr even monday.at the moment i have little cash around 15 bucks. \u000aPlease call or text 509 713 5335
p466
sbsba(iposting
ParsedPosting
p467
(dp468
g6
g7
(S'\x07\xdc\x0b\x10\x00\x00\x00\x00\x00\x00'
p469
tp470
Rp471
sg11
S'ocean shores'
p472
sg13
S'seattle'
p473
sg15
I01
sg16
(iposting
Posting
p474
(dp475
g19
Vhttp://seattle.craigslist.org/see/rid/3413644572.html
p476
sg21
g22
sg23
VSequim, Port Angeles, Forks, Ocean Shores (Coming from Seattle, leaving around NOON)
p477
sg25
g26
sg27
V2012-11-16T06:56:13-08:00
p478
sg29
g7
(S'\x07\xdc\x0b\x10\x068\r\x00\x00\x00'
p479
tp480
Rp481
sg33
VHey, hippie here going from Seattle to Sequim, Port Angeles, Forks, Ocean Shores(to dig razor clams), Grays Harbor, then back to Seattle on Sunday via Hoquiam, Aberdeen, Olympia, Tacoma. Anyone need a ride? I drive a large passenger van and can seat  [...]
p482
sbsba(iposting
ParsedPosting
p483
(dp484
g6
g7
(S'\x07\xdc\x0b\x15\x00\x00\x00\x00\x00\x00'
p485
tp486
Rp487
sg11
S'seattle'
p488
sg13
S'billings'
p489
sg15
I01
sg16
(iposting
Posting
p490
(dp491
g19
Vhttp://seattle.craigslist.org/tac/rid/3384407141.html
p492
sg21
g22
sg23
VRideshare and drive share from Billings MT to Seattle area November 21 (Seattle)
p493
sg25
g26
sg27
V2012-11-16T06:31:37-08:00
p494
sg29
g7
(S'\x07\xdc\x0b\x10\x06\x1f%\x00\x00\x00'
p495
tp496
Rp497
sg33
VI am leaving from Billings on November 21st and arriving on Seattle area on the 22nd and returning to Billings beginning on November 25th and arriving on the 26th. \u000aI am driving a 98 Dodge Mark III Custom Conversion van with a 5' x 8' cargo trailer.  [...]
p498
sbsbasb.