(iposting
ParsedPostings
p0
(dp1
S'parsedPostings'
p2
(lp3
(iposting
ParsedPosting
p4
(dp5
S'leavingOn'
p6
cdatetime
datetime
p7
(S'\x07\xdc\x0b\x15\x00\x00\x00\x00\x00\x00'
p8
tp9
Rp10
sS'goingTo'
p11
S'tri cities'
p12
sS'leavingFrom'
p13
S'seattle'
p14
sS'driver'
p15
I01
sS'posting'
p16
(iposting
Posting
p17
(dp18
S'permalink'
p19
Vhttp://seattle.craigslist.org/see/rid/3415641625.html
p20
sS'mailToLink'
p21
S'emailnofound'
p22
sS'title'
p23
Vseattle to tri cities (bainbridge island)
p24
sS'postingFrom'
p25
S'seattle'
p26
sS'postingDate'
p27
V2012-11-17T00:15:43-08:00
p28
sS'parsedPostingDate'
p29
g7
(S'\x07\xdc\x0b\x11\x00\x0f+\x00\x00\x00'
p30
tp31
Rp32
sS'shortDescription'
p33
Vdriving from Bainbridge to tri cities wednesday afternoon, taking highway 90. Can stop along the way. need gas money up front. 
p34
sbsba(iposting
ParsedPosting
p35
(dp36
g6
g7
(S'\x07\xdc\x0b\x14\x00\x00\x00\x00\x00\x00'
p37
tp38
Rp39
sg11
S'portland'
p40
sg13
S'seattle'
p41
sg15
I00
sg16
(iposting
Posting
p42
(dp43
g19
Vhttp://seattle.craigslist.org/see/rid/3415592568.html
p44
sg21
g22
sg23
VNeed ride to Portland eve of 11/20 or 11/21
p45
sg25
g26
sg27
V2012-11-16T23:03:21-08:00
p46
sg29
g7
(S'\x07\xdc\x0b\x10\x17\x03\x15\x00\x00\x00'
p47
tp48
Rp49
sg33
VTrying to get to Portland on Tuesday for some thanksgiving fun. I have gas $ and/or grass if you like. Seriously, I'm an awesome rideshare partner. If you don't want to talk I'll sleep.(quietly) If C \u000aconversation is what you seek I can talk interest [...]
p50
sbsba(iposting
ParsedPosting
p51
(dp52
g6
g7
(S'\x07\xdc\x0b\x14\x00\x00\x00\x00\x00\x00'
p53
tp54
Rp55
sg11
S'spokane'
p56
sg13
S'seattle'
p57
sg15
I00
sg16
(iposting
Posting
p58
(dp59
g19
Vhttp://seattle.craigslist.org/see/rid/3415498218.html
p60
sg21
g22
sg23
VRide needed - Seattle to Spokane on Tue 11/20 (Seattle)
p61
sg25
g26
sg27
V2012-11-16T21:19:35-08:00
p62
sg29
g7
(S'\x07\xdc\x0b\x10\x15\x13#\x00\x00\x00'
p63
tp64
Rp65
sg33
VI'm looking for a ride from Seattle to Spokane. \u000aLeaving November 20th returning November 25th. Contact me on Zimride: http://www.zimride.com/ride/share?ride=538634 
p66
sbsbasb.